target datalayout = "e-m:e-p270:32:32-p271:32:32-p272:64:64-i64:64-i128:128-f80:128-n8:16:32:64-S128"
target triple = "x86_64-pc-linux-gnu"

%"struct.clang::TransferrableTargetInfo" = type <{ i8, i8, i8, i8, i8, i8, i8, i8, i8, i8, i8, i8, i8, i8, i8, i8, i8, i8, i8, i8, i8, i8, i8, i8, i8, [3 x i8], %"class.std::optional.583", i8, i8, i8, i8, i8, i8, i8, i8, i8, i8, i8, i8, i8, i8, i8, i8, i8, i8, i16, i16, [2 x i8], i32, i32, [4 x i8], ptr, ptr, ptr, ptr, ptr, ptr, ptr, i32, i32, i32, i32, i32, i32, i32, i32, i32, i32, i32, i32, i8, [3 x i8], i32, i32, [4 x i8] }>
%"class.std::optional.583" = type { %"struct.std::_Optional_base.584" }
%"struct.std::_Optional_base.584" = type { %"struct.std::_Optional_payload.586" }
%"struct.std::_Optional_payload.586" = type { %"struct.std::_Optional_payload_base.base.588", [3 x i8] }
%"struct.std::_Optional_payload_base.base.588" = type <{ %"union.std::_Optional_payload_base<unsigned int>::_Storage", i8 }>
%"union.std::_Optional_payload_base<unsigned int>::_Storage" = type { i32 }

; Function Attrs: mustprogress nounwind uwtable
define linkonce_odr hidden noundef i32 @_ZNK5clang10TargetInfo14getChar32WidthEv(ptr noundef nonnull align 8 dereferenceable(489) %0) #0 comdat align 2 {
  %2 = alloca ptr, align 8
  store ptr %0, ptr %2, align 8
  %3 = load ptr, ptr %2, align 8
  %4 = getelementptr inbounds i8, ptr %3, i64 8
  %5 = getelementptr inbounds nuw %"struct.clang::TransferrableTargetInfo", ptr %4, i32 0, i32 65
  %6 = load i32, ptr %5, align 4
  %7 = call noundef i32 @_ZNK5clang10TargetInfo12getTypeWidthENS_23TransferrableTargetInfo7IntTypeE(ptr noundef nonnull align 8 dereferenceable(489) %3, i32 noundef %6)
  ret i32 %7
}

; Function Attrs: mustprogress nounwind uwtable
define linkonce_odr hidden noundef i32 @_ZNK5clang10TargetInfo14getChar16WidthEv(ptr noundef nonnull align 8 dereferenceable(489) %0) #0 comdat align 2 {
  %2 = alloca ptr, align 8
  store ptr %0, ptr %2, align 8
  %3 = load ptr, ptr %2, align 8
  %4 = getelementptr inbounds i8, ptr %3, i64 8
  %5 = getelementptr inbounds nuw %"struct.clang::TransferrableTargetInfo", ptr %4, i32 0, i32 64
  %6 = load i32, ptr %5, align 8
  %7 = call noundef i32 @_ZNK5clang10TargetInfo12getTypeWidthENS_23TransferrableTargetInfo7IntTypeE(ptr noundef nonnull align 8 dereferenceable(489) %3, i32 noundef %6)
  ret i32 %7
}

; Function Attrs: mustprogress nounwind uwtable
define linkonce_odr hidden noundef i32 @_ZNK5clang10TargetInfo13getWCharWidthEv(ptr noundef nonnull align 8 dereferenceable(489) %0) #0 comdat align 2 {
  %2 = alloca ptr, align 8
  store ptr %0, ptr %2, align 8
  %3 = load ptr, ptr %2, align 8
  %4 = getelementptr inbounds i8, ptr %3, i64 8
  %5 = getelementptr inbounds nuw %"struct.clang::TransferrableTargetInfo", ptr %4, i32 0, i32 62
  %6 = load i32, ptr %5, align 8
  %7 = call noundef i32 @_ZNK5clang10TargetInfo12getTypeWidthENS_23TransferrableTargetInfo7IntTypeE(ptr noundef nonnull align 8 dereferenceable(489) %3, i32 noundef %6)
  ret i32 %7
}

; Function Attrs: mustprogress nounwind uwtable
define linkonce_odr hidden noundef i32 @_ZNK5clang10TargetInfo12getCharWidthEv(ptr noundef nonnull align 8 dereferenceable(489) %0) #0 comdat align 2 {
  %2 = alloca ptr, align 8
  store ptr %0, ptr %2, align 8
  ret i32 8
}

; Function Attrs: mustprogress nounwind uwtable
define dso_local noundef i32 @_ZN5clang13StringLiteral16mapCharByteWidthERKNS_10TargetInfoENS_17StringLiteralKindE(ptr noundef nonnull align 8 dereferenceable(489) %0, i32 noundef %1) #0 align 2 {
  %3 = alloca i32, align 4
  %4 = alloca ptr, align 8
  %5 = alloca i32, align 4
  %6 = alloca i32, align 4
  store ptr %0, ptr %4, align 8
  store i32 %1, ptr %5, align 4
  store i32 0, ptr %6, align 4
  %7 = load i32, ptr %5, align 4
  switch i32 %7, label %21 [
    i32 0, label %8
    i32 2, label %8
    i32 1, label %11
    i32 3, label %14
    i32 4, label %17
    i32 5, label %20
  ]

8:                                                ; preds = %2, %2
  %9 = load ptr, ptr %4, align 8
  %10 = call noundef i32 @_ZNK5clang10TargetInfo12getCharWidthEv(ptr noundef nonnull align 8 dereferenceable(489) %9)
  store i32 %10, ptr %6, align 4
  br label %21

11:                                               ; preds = %2
  %12 = load ptr, ptr %4, align 8
  %13 = call noundef i32 @_ZNK5clang10TargetInfo13getWCharWidthEv(ptr noundef nonnull align 8 dereferenceable(489) %12)
  store i32 %13, ptr %6, align 4
  br label %21

14:                                               ; preds = %2
  %15 = load ptr, ptr %4, align 8
  %16 = call noundef i32 @_ZNK5clang10TargetInfo14getChar16WidthEv(ptr noundef nonnull align 8 dereferenceable(489) %15)
  store i32 %16, ptr %6, align 4
  br label %21

17:                                               ; preds = %2
  %18 = load ptr, ptr %4, align 8
  %19 = call noundef i32 @_ZNK5clang10TargetInfo14getChar32WidthEv(ptr noundef nonnull align 8 dereferenceable(489) %18)
  store i32 %19, ptr %6, align 4
  br label %21

20:                                               ; preds = %2
  store i32 1, ptr %3, align 4
  br label %25

21:                                               ; preds = %17, %14, %11, %8, %2
  %22 = load i32, ptr %6, align 4
  %23 = udiv i32 %22, 8
  store i32 %23, ptr %6, align 4
  %24 = load i32, ptr %6, align 4
  store i32 %24, ptr %3, align 4
  br label %25

25:                                               ; preds = %21, %20
  %26 = load i32, ptr %3, align 4
  ret i32 %26
}