; Function Attrs: mustprogress nounwind uwtable
define dso_local noundef range(i32 0, 536870912) i32 @_ZN5clang13StringLiteral16mapCharByteWidthERKNS_10TargetInfoENS_17StringLiteralKindE(ptr noundef nonnull align 8 dereferenceable(489) %0, i32 noundef %1) local_unnamed_addr #1 align 2 {
  switch i32 %1, label %16 [
    i32 0, label %3
    i32 2, label %3
    i32 1, label %4
    i32 3, label %8
    i32 4, label %12
    i32 5, label %18
  ]

3:                                                ; preds = %2, %2
  br label %16

4:                                                ; preds = %2
  %5 = getelementptr inbounds i8, ptr %0, i64 152
  %6 = load i32, ptr %5, align 8
  %7 = tail call noundef i32 @_ZNK5clang10TargetInfo12getTypeWidthENS_23TransferrableTargetInfo7IntTypeE(ptr noundef nonnull align 8 dereferenceable(489) %0, i32 noundef %6) #28
  br label %16

8:                                                ; preds = %2
  %9 = getelementptr inbounds i8, ptr %0, i64 160
  %10 = load i32, ptr %9, align 8
  %11 = tail call noundef i32 @_ZNK5clang10TargetInfo12getTypeWidthENS_23TransferrableTargetInfo7IntTypeE(ptr noundef nonnull align 8 dereferenceable(489) %0, i32 noundef %10) #28
  br label %16

12:                                               ; preds = %2
  %13 = getelementptr inbounds i8, ptr %0, i64 164
  %14 = load i32, ptr %13, align 4
  %15 = tail call noundef i32 @_ZNK5clang10TargetInfo12getTypeWidthENS_23TransferrableTargetInfo7IntTypeE(ptr noundef nonnull align 8 dereferenceable(489) %0, i32 noundef %14) #28
  br label %16

16:                                               ; preds = %12, %8, %4, %3, %2
  %.0 = phi i32 [ 0, %2 ], [ %15, %12 ], [ %11, %8 ], [ %7, %4 ], [ 8, %3 ]
  %17 = lshr i32 %.0, 3
  br label %18

18:                                               ; preds = %2, %16
  %.07 = phi i32 [ %17, %16 ], [ 1, %2 ]
  ret i32 %.07
}